target datalayout = "e-m:e-p270:32:32-p271:32:32-p272:64:64-i64:64-i128:128-f80:128-n8:16:32:64-S128"
target triple = "x86_64-pc-linux-gnu"

%struct.promisor_remote_config = type { ptr, ptr }
%struct.promisor_remote = type { ptr, ptr, [0 x i8] }

@.str.4 = private unnamed_addr constant [47 x i8] c"promisor remote name cannot begin with '/': %s\00", align 1
@.str.5 = private unnamed_addr constant [27 x i8] c"size_t overflow: %lu + %lu\00", align 1
@.str.24 = private unnamed_addr constant [1 x i8] zeroinitializer, align 1
@git_gettext_enabled = external global i32, align 4

; Function Attrs: inlinehint nounwind uwtable
define internal i64 @st_add(i64 noundef %0, i64 noundef %1) #5 {
  %3 = alloca i64, align 8
  %4 = alloca i64, align 8
  store i64 %0, ptr %3, align 8, !tbaa !66
  store i64 %1, ptr %4, align 8, !tbaa !66
  %5 = load i64, ptr %4, align 8, !tbaa !66
  %6 = load i64, ptr %3, align 8, !tbaa !66
  %7 = sub i64 -1, %6
  %8 = icmp ugt i64 %5, %7
  br i1 %8, label %9, label %12

9:                                                ; preds = %2
  %10 = load i64, ptr %3, align 8, !tbaa !66
  %11 = load i64, ptr %4, align 8, !tbaa !66
  call void (ptr, ...) @die(ptr noundef @.str.5, i64 noundef %10, i64 noundef %11) #10
  unreachable

12:                                               ; preds = %2
  %13 = load i64, ptr %3, align 8, !tbaa !66
  %14 = load i64, ptr %4, align 8, !tbaa !66
  %15 = add i64 %13, %14
  ret i64 %15
}

; Function Attrs: inlinehint nounwind uwtable
define internal ptr @_(ptr noundef %0) #5 {
  %2 = alloca ptr, align 8
  %3 = alloca ptr, align 8
  store ptr %0, ptr %3, align 8, !tbaa !14
  %4 = load ptr, ptr %3, align 8, !tbaa !14
  %5 = load i8, ptr %4, align 1, !tbaa !62
  %6 = icmp ne i8 %5, 0
  br i1 %6, label %8, label %7

7:                                                ; preds = %1
  store ptr @.str.24, ptr %2, align 8
  br label %16

8:                                                ; preds = %1
  %9 = load i32, ptr @git_gettext_enabled, align 4, !tbaa !45
  %10 = icmp ne i32 %9, 0
  br i1 %10, label %13, label %11

11:                                               ; preds = %8
  %12 = load ptr, ptr %3, align 8, !tbaa !14
  store ptr %12, ptr %2, align 8
  br label %16

13:                                               ; preds = %8
  %14 = load ptr, ptr %3, align 8, !tbaa !14
  %15 = call ptr @dcgettext(ptr noundef null, ptr noundef %14, i32 noundef 5) #8
  store ptr %15, ptr %2, align 8
  br label %16

16:                                               ; preds = %13, %11, %7
  %17 = load ptr, ptr %2, align 8
  ret ptr %17
}

; Function Attrs: nounwind uwtable
define internal ptr @promisor_remote_new(ptr noundef %0, ptr noundef %1) #0 {
  %3 = alloca ptr, align 8
  %4 = alloca ptr, align 8
  %5 = alloca ptr, align 8
  %6 = alloca ptr, align 8
  %7 = alloca i32, align 4
  %8 = alloca i64, align 8
  store ptr %0, ptr %4, align 8, !tbaa !4
  store ptr %1, ptr %5, align 8, !tbaa !14
  call void @llvm.lifetime.start.p0(i64 8, ptr %6) #8
  %9 = load ptr, ptr %5, align 8, !tbaa !14
  %10 = load i8, ptr %9, align 1, !tbaa !62
  %11 = sext i8 %10 to i32
  %12 = icmp eq i32 %11, 47
  br i1 %12, label %13, label %16

13:                                               ; preds = %2
  %14 = call ptr @_(ptr noundef @.str.4)
  %15 = load ptr, ptr %5, align 8, !tbaa !14
  call void (ptr, ...) @warning(ptr noundef %14, ptr noundef %15)
  store ptr null, ptr %3, align 8
  store i32 1, ptr %7, align 4
  br label %40

16:                                               ; preds = %2
  br label %17

17:                                               ; preds = %16
  call void @llvm.lifetime.start.p0(i64 8, ptr %8) #8
  %18 = load ptr, ptr %5, align 8, !tbaa !14
  %19 = call i64 @strlen(ptr noundef %18) #9
  store i64 %19, ptr %8, align 8, !tbaa !66
  %20 = load i64, ptr %8, align 8, !tbaa !66
  %21 = call i64 @st_add(i64 noundef 16, i64 noundef %20)
  %22 = call i64 @st_add(i64 noundef %21, i64 noundef 1)
  %23 = call ptr @xcalloc(i64 noundef 1, i64 noundef %22)
  store ptr %23, ptr %6, align 8, !tbaa !13
  %24 = load ptr, ptr %6, align 8, !tbaa !13
  %25 = getelementptr inbounds nuw %struct.promisor_remote, ptr %24, i32 0, i32 2
  %26 = getelementptr inbounds [0 x i8], ptr %25, i64 0, i64 0
  %27 = load ptr, ptr %5, align 8, !tbaa !14
  %28 = load i64, ptr %8, align 8, !tbaa !66
  call void @llvm.memcpy.p0.p0.i64(ptr align 8 %26, ptr align 1 %27, i64 %28, i1 false)
  call void @llvm.lifetime.end.p0(i64 8, ptr %8) #8
  br label %29

29:                                               ; preds = %17
  br label %30

30:                                               ; preds = %29
  %31 = load ptr, ptr %6, align 8, !tbaa !13
  %32 = load ptr, ptr %4, align 8, !tbaa !4
  %33 = getelementptr inbounds nuw %struct.promisor_remote_config, ptr %32, i32 0, i32 1
  %34 = load ptr, ptr %33, align 8, !tbaa !18
  store ptr %31, ptr %34, align 8, !tbaa !13
  %35 = load ptr, ptr %6, align 8, !tbaa !13
  %36 = getelementptr inbounds nuw %struct.promisor_remote, ptr %35, i32 0, i32 0
  %37 = load ptr, ptr %4, align 8, !tbaa !4
  %38 = getelementptr inbounds nuw %struct.promisor_remote_config, ptr %37, i32 0, i32 1
  store ptr %36, ptr %38, align 8, !tbaa !18
  %39 = load ptr, ptr %6, align 8, !tbaa !13
  store ptr %39, ptr %3, align 8
  store i32 1, ptr %7, align 4
  br label %40

40:                                               ; preds = %30, %13
  call void @llvm.lifetime.end.p0(i64 8, ptr %6) #8
  %41 = load ptr, ptr %3, align 8
  ret ptr %41
}