; Function Attrs: nounwind uwtable
define internal fastcc ptr @promisor_remote_new(ptr noundef captures(none) %0, ptr noundef %1) unnamed_addr #0 {
  %3 = load i8, ptr %1, align 1, !tbaa !54
  %4 = icmp eq i8 %3, 47
  br i1 %4, label %5, label %9

5:                                                ; preds = %2
  %6 = load i32, ptr @git_gettext_enabled, align 4, !tbaa !39
  %.not4.i = icmp eq i32 %6, 0
  br i1 %.not4.i, label %_.exit, label %7

7:                                                ; preds = %5
  %8 = tail call ptr @dcgettext(ptr noundef null, ptr noundef nonnull @.str.4, i32 noundef 5) #10
  br label %_.exit

_.exit:                                           ; preds = %5, %7
  %.0.i = phi ptr [ %8, %7 ], [ @.str.4, %5 ]
  tail call void (ptr, ...) @warning(ptr noundef %.0.i, ptr noundef nonnull %1) #10
  br label %20

9:                                                ; preds = %2
  %10 = tail call i64 @strlen(ptr noundef nonnull dereferenceable(1) %1) #11
  %11 = icmp ugt i64 %10, -17
  br i1 %11, label %12, label %st_add.exit

12:                                               ; preds = %9
  tail call void (ptr, ...) @die(ptr noundef nonnull @.str.5, i64 noundef 16, i64 noundef %10) #12
  unreachable

st_add.exit:                                      ; preds = %9
  %13 = icmp eq i64 %10, -17
  br i1 %13, label %14, label %st_add.exit12

14:                                               ; preds = %st_add.exit
  tail call void (ptr, ...) @die(ptr noundef nonnull @.str.5, i64 noundef -1, i64 noundef 1) #12
  unreachable

st_add.exit12:                                    ; preds = %st_add.exit
  %15 = add nuw i64 %10, 17
  %16 = tail call ptr @xcalloc(i64 noundef 1, i64 noundef %15) #10
  %17 = getelementptr inbounds nuw i8, ptr %16, i64 16
  tail call void @llvm.memcpy.p0.p0.i64(ptr nonnull align 8 %17, ptr nonnull align 1 %1, i64 %10, i1 false)
  %18 = getelementptr inbounds nuw i8, ptr %0, i64 8
  %19 = load ptr, ptr %18, align 8, !tbaa !16
  store ptr %16, ptr %19, align 8, !tbaa !13
  store ptr %16, ptr %18, align 8, !tbaa !16
  br label %20

20:                                               ; preds = %st_add.exit12, %_.exit
  %.0 = phi ptr [ null, %_.exit ], [ %16, %st_add.exit12 ]
  ret ptr %.0
}